target datalayout = "e-m:e-p270:32:32-p271:32:32-p272:64:64-i64:64-i128:128-f80:128-n8:16:32:64-S128"
target triple = "x86_64-pc-linux-gnu"

%struct.Abc_Ntk_t_ = type { i32, i32, ptr, ptr, ptr, ptr, ptr, ptr, ptr, ptr, ptr, ptr, ptr, [11 x i32], i32, i32, i32, i32, ptr, i32, ptr, ptr, i32, i32, i32, double, i32, %struct.Vec_Int_t_, ptr, ptr, ptr, ptr, ptr, float, i32, ptr, ptr, ptr, ptr, ptr, ptr, ptr, ptr, ptr, ptr, ptr, ptr, ptr, ptr, ptr, ptr, ptr, ptr, ptr, ptr, ptr, ptr }
%struct.Vec_Int_t_ = type { i32, i32, ptr }

@.str = private unnamed_addr constant [51 x i8] c"Something did not work out with the command \22%s\22.\0A\00", align 1

; Function Attrs: inlinehint nounwind uwtable
define internal i32 @Abc_NtkNodeNum(ptr noundef %0) #2 {
  %2 = alloca ptr, align 8
  store ptr %0, ptr %2, align 8, !tbaa !3
  %3 = load ptr, ptr %2, align 8, !tbaa !3
  %4 = getelementptr inbounds nuw %struct.Abc_Ntk_t_, ptr %3, i32 0, i32 13
  %5 = getelementptr inbounds [11 x i32], ptr %4, i64 0, i64 7
  %6 = load i32, ptr %5, align 4, !tbaa !10
  ret i32 %6
}

; Function Attrs: nounwind uwtable
define i32 @Abc_NtkRunGenOne(ptr noundef %0, ptr noundef %1) #0 {
  %3 = alloca i32, align 4
  %4 = alloca ptr, align 8
  %5 = alloca ptr, align 8
  %6 = alloca ptr, align 8
  store ptr %0, ptr %4, align 8, !tbaa !3
  store ptr %1, ptr %5, align 8, !tbaa !8
  %7 = call ptr (...) @Abc_FrameGetGlobalFrame()
  %8 = load ptr, ptr %4, align 8, !tbaa !3
  call void @Abc_FrameReplaceCurrentNetwork(ptr noundef %7, ptr noundef %8)
  %9 = call i32 (...) @Abc_FrameIsBatchMode()
  %10 = icmp ne i32 %9, 0
  br i1 %10, label %11, label %19

11:                                               ; preds = %2
  %12 = call ptr (...) @Abc_FrameGetGlobalFrame()
  %13 = load ptr, ptr %5, align 8, !tbaa !8
  %14 = call i32 @Cmd_CommandExecute(ptr noundef %12, ptr noundef %13)
  %15 = icmp ne i32 %14, 0
  br i1 %15, label %16, label %18

16:                                               ; preds = %11
  %17 = load ptr, ptr %5, align 8, !tbaa !8
  call void (i32, ptr, ...) @Abc_Print(i32 noundef 1, ptr noundef @.str, ptr noundef %17)
  store i32 0, ptr %3, align 4
  br label %32

18:                                               ; preds = %11
  br label %27

19:                                               ; preds = %2
  call void @Abc_FrameSetBatchMode(i32 noundef 1)
  %20 = call ptr (...) @Abc_FrameGetGlobalFrame()
  %21 = load ptr, ptr %5, align 8, !tbaa !8
  %22 = call i32 @Cmd_CommandExecute(ptr noundef %20, ptr noundef %21)
  %23 = icmp ne i32 %22, 0
  br i1 %23, label %24, label %26

24:                                               ; preds = %19
  %25 = load ptr, ptr %5, align 8, !tbaa !8
  call void (i32, ptr, ...) @Abc_Print(i32 noundef 1, ptr noundef @.str, ptr noundef %25)
  store i32 0, ptr %3, align 4
  br label %32

26:                                               ; preds = %19
  call void @Abc_FrameSetBatchMode(i32 noundef 0)
  br label %27

27:                                               ; preds = %26, %18
  call void @llvm.lifetime.start.p0(i64 8, ptr %6) #10
  %28 = call ptr (...) @Abc_FrameGetGlobalFrame()
  %29 = call ptr @Abc_FrameReadNtk(ptr noundef %28)
  store ptr %29, ptr %6, align 8, !tbaa !3
  %30 = load ptr, ptr %6, align 8, !tbaa !3
  %31 = call i32 @Abc_NtkNodeNum(ptr noundef %30)
  store i32 %31, ptr %3, align 4
  call void @llvm.lifetime.end.p0(i64 8, ptr %6) #10
  br label %32

32:                                               ; preds = %27, %24, %16
  %33 = load i32, ptr %3, align 4
  ret i32 %33
}