; Function Attrs: nounwind uwtable
define i32 @Abc_NtkRunGenOne(ptr noundef %0, ptr noundef %1) local_unnamed_addr #0 {
  %3 = tail call ptr (...) @Abc_FrameGetGlobalFrame() #14
  tail call void @Abc_FrameReplaceCurrentNetwork(ptr noundef %3, ptr noundef %0) #14
  %4 = tail call i32 (...) @Abc_FrameIsBatchMode() #14
  %.not = icmp eq i32 %4, 0
  br i1 %.not, label %9, label %5

5:                                                ; preds = %2
  %6 = tail call ptr (...) @Abc_FrameGetGlobalFrame() #14
  %7 = tail call i32 @Cmd_CommandExecute(ptr noundef %6, ptr noundef %1) #14
  %.not7 = icmp eq i32 %7, 0
  br i1 %.not7, label %14, label %8

8:                                                ; preds = %5
  tail call void (i32, ptr, ...) @Abc_Print(i32 poison, ptr noundef nonnull @.str, ptr noundef %1)
  br label %18

9:                                                ; preds = %2
  tail call void @Abc_FrameSetBatchMode(i32 noundef 1) #14
  %10 = tail call ptr (...) @Abc_FrameGetGlobalFrame() #14
  %11 = tail call i32 @Cmd_CommandExecute(ptr noundef %10, ptr noundef %1) #14
  %.not6 = icmp eq i32 %11, 0
  br i1 %.not6, label %13, label %12

12:                                               ; preds = %9
  tail call void (i32, ptr, ...) @Abc_Print(i32 poison, ptr noundef nonnull @.str, ptr noundef %1)
  br label %18

13:                                               ; preds = %9
  tail call void @Abc_FrameSetBatchMode(i32 noundef 0) #14
  br label %14

14:                                               ; preds = %5, %13
  %15 = tail call ptr (...) @Abc_FrameGetGlobalFrame() #14
  %16 = tail call ptr @Abc_FrameReadNtk(ptr noundef %15) #14
  %17 = getelementptr i8, ptr %16, i64 124
  %.val = load i32, ptr %17, align 4, !tbaa !3
  br label %18

18:                                               ; preds = %14, %12, %8
  %.0 = phi i32 [ 0, %8 ], [ %.val, %14 ], [ 0, %12 ]
  ret i32 %.0
}